target datalayout = "e-m:e-p270:32:32-p271:32:32-p272:64:64-i64:64-i128:128-f80:128-n8:16:32:64-S128"
target triple = "x86_64-pc-linux-gnu"

%struct.reassembly_table = type { ptr, ptr, ptr, ptr, ptr }

@proto_register_btmesh_pbadv.ett = internal global [4 x ptr] [ptr @ett_btmesh_pbadv, ptr @ett_btmesh_generic_provisioning, ptr @ett_btmesh_gpp_fragments, ptr @ett_btmesh_gpp_fragment], align 16
@.str.55 = private unnamed_addr constant [22 x i8] c"Bluetooth Mesh PB-ADV\00", align 1
@.str.56 = private unnamed_addr constant [15 x i8] c"BT Mesh PB-ADV\00", align 1
@.str.57 = private unnamed_addr constant [6 x i8] c"pbadv\00", align 1
@proto_btmesh_pbadv = internal global i32 0, align 4
@.str.58 = private unnamed_addr constant [10 x i8] c"Bluetooth\00", align 1
@.str.59 = private unnamed_addr constant [13 x i8] c"btmesh.pbadv\00", align 1
@pbadv_reassembly_table = internal global %struct.reassembly_table zeroinitializer, align 8

; Function Attrs: null_pointer_is_valid sspstrong uwtable
define hidden void @proto_register_btmesh_pbadv() #0 {
  %1 = alloca ptr, align 8
  call void @llvm.lifetime.start.p0(i64 8, ptr %1) #5
  %2 = call i32 @proto_register_protocol(ptr noundef @.str.55, ptr noundef @.str.56, ptr noundef @.str.57)
  store i32 %2, ptr @proto_btmesh_pbadv, align 4
  %3 = load i32, ptr @proto_btmesh_pbadv, align 4
  call void @proto_register_field_array(i32 noundef %3, ptr noundef @proto_register_btmesh_pbadv.hf, i32 noundef 23)
  call void @proto_register_subtree_array(ptr noundef @proto_register_btmesh_pbadv.ett, i32 noundef 4)
  %4 = load i32, ptr @proto_btmesh_pbadv, align 4
  %5 = call ptr @expert_register_protocol(i32 noundef %4)
  store ptr %5, ptr %1, align 8
  %6 = load ptr, ptr %1, align 8
  call void @expert_register_field_array(ptr noundef %6, ptr noundef @proto_register_btmesh_pbadv.ei, i32 noundef 2)
  %7 = load i32, ptr @proto_btmesh_pbadv, align 4
  %8 = call ptr @prefs_register_protocol_subtree(ptr noundef @.str.58, i32 noundef %7, ptr noundef null)
  %9 = load i32, ptr @proto_btmesh_pbadv, align 4
  %10 = call ptr @register_dissector(ptr noundef @.str.59, ptr noundef @dissect_btmesh_pbadv_msg, i32 noundef %9)
  call void @reassembly_table_register(ptr noundef @pbadv_reassembly_table, ptr noundef @pbadv_reassembly_table_functions)
  call void @llvm.lifetime.end.p0(i64 8, ptr %1) #5
  ret void
}